target datalayout = "e-m:e-p270:32:32-p271:32:32-p272:64:64-i64:64-i128:128-f80:128-n8:16:32:64-S128"
target triple = "x86_64-pc-linux-gnu"

%"class.cv::Size_" = type { i32, i32 }
%"class.cv::detail::tracking::online_boosting::StrongClassifierDirectSelection" = type { ptr, i32, i32, i32, i32, ptr, %"class.std::vector", %"class.cv::Size_", i8, %"class.std::vector.0", %"class.std::vector", %"class.std::vector", ptr, %"class.cv::Rect_", i32, i32 }
%"class.std::vector.0" = type { %"struct.std::_Bvector_base" }
%"struct.std::_Bvector_base" = type { %"struct.std::_Bvector_base<std::allocator<bool>>::_Bvector_impl" }
%"struct.std::_Bvector_base<std::allocator<bool>>::_Bvector_impl" = type { %"struct.std::_Bvector_base<std::allocator<bool>>::_Bvector_impl_data" }
%"struct.std::_Bvector_base<std::allocator<bool>>::_Bvector_impl_data" = type { %"struct.std::_Bit_iterator", %"struct.std::_Bit_iterator", ptr }
%"struct.std::_Bit_iterator" = type { %"struct.std::_Bit_iterator_base.base", [4 x i8] }
%"struct.std::_Bit_iterator_base.base" = type <{ ptr, i32 }>
%"class.std::vector" = type { %"struct.std::_Vector_base" }
%"struct.std::_Vector_base" = type { %"struct.std::_Vector_base<float, std::allocator<float>>::_Vector_impl" }
%"struct.std::_Vector_base<float, std::allocator<float>>::_Vector_impl" = type { %"struct.std::_Vector_base<float, std::allocator<float>>::_Vector_impl_data" }
%"struct.std::_Vector_base<float, std::allocator<float>>::_Vector_impl_data" = type { ptr, ptr, ptr }
%"class.cv::Rect_" = type { i32, i32, i32, i32 }
%"class.cv::detail::tracking::online_boosting::BaseClassifier" = type <{ ptr, ptr, i8, [3 x i8], i32, i32, i32, %"class.std::vector", %"class.std::vector", i32, [4 x i8] }>

; Function Attrs: mustprogress nounwind uwtable
define linkonce_odr hidden noundef i32 @_ZN2cv6detail8tracking15online_boosting14BaseClassifier25getIdxOfNewWeakClassifierEv(ptr noundef nonnull align 8 dereferenceable(84) %0) #5 comdat align 2 {
  %2 = alloca ptr, align 8
  store ptr %0, ptr %2, align 8, !tbaa !66
  %3 = load ptr, ptr %2, align 8
  %4 = getelementptr inbounds nuw %"class.cv::detail::tracking::online_boosting::BaseClassifier", ptr %3, i32 0, i32 6
  %5 = load i32, ptr %4, align 4, !tbaa !132
  ret i32 %5
}

; Function Attrs: mustprogress uwtable
define hidden void @_ZN2cv6detail8tracking15online_boosting31StrongClassifierDirectSelection21replaceWeakClassifierEi(ptr noundef nonnull align 8 dereferenceable(192) %0, i32 noundef %1) #4 align 2 {
  %3 = alloca ptr, align 8
  %4 = alloca i32, align 4
  %5 = alloca i32, align 4
  store ptr %0, ptr %3, align 8, !tbaa !3
  store i32 %1, ptr %4, align 4, !tbaa !8
  %6 = load ptr, ptr %3, align 8
  %7 = getelementptr inbounds nuw %"class.cv::detail::tracking::online_boosting::StrongClassifierDirectSelection", ptr %6, i32 0, i32 8
  %8 = load i8, ptr %7, align 8, !tbaa !43, !range !41, !noundef !42
  %9 = trunc i8 %8 to i1
  br i1 %9, label %10, label %42

10:                                               ; preds = %2
  %11 = load i32, ptr %4, align 4, !tbaa !8
  %12 = icmp sge i32 %11, 0
  br i1 %12, label %13, label %42

13:                                               ; preds = %10
  %14 = getelementptr inbounds nuw %"class.cv::detail::tracking::online_boosting::StrongClassifierDirectSelection", ptr %6, i32 0, i32 5
  %15 = load ptr, ptr %14, align 8, !tbaa !65
  %16 = getelementptr inbounds ptr, ptr %15, i64 0
  %17 = load ptr, ptr %16, align 8, !tbaa !66
  %18 = load i32, ptr %4, align 4, !tbaa !8
  call void @_ZN2cv6detail8tracking15online_boosting14BaseClassifier21replaceWeakClassifierEi(ptr noundef nonnull align 8 dereferenceable(84) %17, i32 noundef %18)
  call void @llvm.lifetime.start.p0(i64 4, ptr %5) #3
  store i32 1, ptr %5, align 4, !tbaa !8
  br label %19

19:                                               ; preds = %38, %13
  %20 = load i32, ptr %5, align 4, !tbaa !8
  %21 = getelementptr inbounds nuw %"class.cv::detail::tracking::online_boosting::StrongClassifierDirectSelection", ptr %6, i32 0, i32 1
  %22 = load i32, ptr %21, align 8, !tbaa !16
  %23 = icmp slt i32 %20, %22
  br i1 %23, label %25, label %24

24:                                               ; preds = %19
  call void @llvm.lifetime.end.p0(i64 4, ptr %5) #3
  br label %41

25:                                               ; preds = %19
  %26 = getelementptr inbounds nuw %"class.cv::detail::tracking::online_boosting::StrongClassifierDirectSelection", ptr %6, i32 0, i32 5
  %27 = load ptr, ptr %26, align 8, !tbaa !65
  %28 = load i32, ptr %5, align 4, !tbaa !8
  %29 = sext i32 %28 to i64
  %30 = getelementptr inbounds ptr, ptr %27, i64 %29
  %31 = load ptr, ptr %30, align 8, !tbaa !66
  %32 = getelementptr inbounds nuw %"class.cv::detail::tracking::online_boosting::StrongClassifierDirectSelection", ptr %6, i32 0, i32 5
  %33 = load ptr, ptr %32, align 8, !tbaa !65
  %34 = getelementptr inbounds ptr, ptr %33, i64 0
  %35 = load ptr, ptr %34, align 8, !tbaa !66
  %36 = call noundef i32 @_ZN2cv6detail8tracking15online_boosting14BaseClassifier25getIdxOfNewWeakClassifierEv(ptr noundef nonnull align 8 dereferenceable(84) %35)
  %37 = load i32, ptr %4, align 4, !tbaa !8
  call void @_ZN2cv6detail8tracking15online_boosting14BaseClassifier26replaceClassifierStatisticEii(ptr noundef nonnull align 8 dereferenceable(84) %31, i32 noundef %36, i32 noundef %37)
  br label %38

38:                                               ; preds = %25
  %39 = load i32, ptr %5, align 4, !tbaa !8
  %40 = add nsw i32 %39, 1
  store i32 %40, ptr %5, align 4, !tbaa !8
  br label %19, !llvm.loop !133

41:                                               ; preds = %24
  br label %42

42:                                               ; preds = %41, %10, %2
  ret void
}