; Function Attrs: mustprogress uwtable
define hidden void @_ZN2cv6detail8tracking15online_boosting31StrongClassifierDirectSelection21replaceWeakClassifierEi(ptr noundef nonnull readonly align 8 captures(none) dereferenceable(192) %0, i32 noundef %1) local_unnamed_addr #3 align 2 {
  %3 = getelementptr inbounds nuw i8, ptr %0, i64 64
  %4 = load i8, ptr %3, align 8, !tbaa !36, !range !112, !noundef !113
  %5 = trunc nuw i8 %4 to i1
  %6 = icmp sgt i32 %1, -1
  %or.cond = and i1 %6, %5
  br i1 %or.cond, label %7, label %.loopexit

7:                                                ; preds = %2
  %8 = getelementptr inbounds nuw i8, ptr %0, i64 24
  %9 = load ptr, ptr %8, align 8, !tbaa !64
  %10 = load ptr, ptr %9, align 8, !tbaa !65
  tail call void @_ZN2cv6detail8tracking15online_boosting14BaseClassifier21replaceWeakClassifierEi(ptr noundef nonnull align 8 dereferenceable(84) %10, i32 noundef %1)
  %11 = getelementptr inbounds nuw i8, ptr %0, i64 8
  %12 = load i32, ptr %11, align 8, !tbaa !13
  %13 = icmp sgt i32 %12, 1
  br i1 %13, label %.lr.ph, label %.loopexit

.lr.ph:                                           ; preds = %7, %.lr.ph
  %indvars.iv = phi i64 [ %indvars.iv.next, %.lr.ph ], [ 1, %7 ]
  %14 = load ptr, ptr %8, align 8, !tbaa !64
  %15 = getelementptr inbounds nuw ptr, ptr %14, i64 %indvars.iv
  %16 = load ptr, ptr %15, align 8, !tbaa !65
  %17 = load ptr, ptr %14, align 8, !tbaa !65
  %18 = getelementptr inbounds nuw i8, ptr %17, i64 28
  %19 = load i32, ptr %18, align 4, !tbaa !121
  tail call void @_ZN2cv6detail8tracking15online_boosting14BaseClassifier26replaceClassifierStatisticEii(ptr noundef nonnull align 8 dereferenceable(84) %16, i32 noundef %19, i32 noundef %1)
  %indvars.iv.next = add nuw nsw i64 %indvars.iv, 1
  %20 = load i32, ptr %11, align 8, !tbaa !13
  %21 = sext i32 %20 to i64
  %22 = icmp slt i64 %indvars.iv.next, %21
  br i1 %22, label %.lr.ph, label %.loopexit, !llvm.loop !138

.loopexit:                                        ; preds = %.lr.ph, %7, %2
  ret void
}